; Function Attrs: nounwind sspstrong uwtable
define internal void @imx_usdhc_init(ptr noundef %obj) #0 {
entry:
  %call.i = tail call ptr @object_dynamic_cast_assert(ptr noundef %obj, ptr noundef nonnull @.str.151, ptr noundef nonnull @.str.153, i32 noundef 124, ptr noundef nonnull @__func__.SYSBUS_SDHCI) #12
  %io_ops = getelementptr inbounds nuw i8, ptr %call.i, i64 3112
  store ptr @usdhc_mmio_ops, ptr %io_ops, align 8
  %quirks = getelementptr inbounds nuw i8, ptr %call.i, i64 3268
  store i32 16384, ptr %quirks, align 4
  ret void
}